
firmware.elf:     file format elf32-littleriscv


Disassembly of section .text:

00000000 <_start>:
   0:	00004137          	lui	sp,0x4
   4:	ffc10113          	addi	sp,sp,-4 # 3ffc <aes_regs+0x3ebc>
   8:	00000193          	li	gp,0
   c:	008000ef          	jal	ra,14 <main>

00000010 <_trap>:
  10:	0000006f          	j	10 <_trap>

00000014 <main>:
  14:	14002783          	lw	a5,320(zero) # 140 <aes_regs>
  18:	03020737          	lui	a4,0x3020
  1c:	10070713          	addi	a4,a4,256 # 3020100 <aes_regs+0x301ffc0>
  20:	00e7aa23          	sw	a4,20(a5)
  24:	07060737          	lui	a4,0x7060
  28:	50470713          	addi	a4,a4,1284 # 7060504 <aes_regs+0x70603c4>
  2c:	00e7ac23          	sw	a4,24(a5)
  30:	0b0a1737          	lui	a4,0xb0a1
  34:	90870713          	addi	a4,a4,-1784 # b0a0908 <aes_regs+0xb0a07c8>
  38:	00e7ae23          	sw	a4,28(a5)
  3c:	0f0e1737          	lui	a4,0xf0e1
  40:	d0c70713          	addi	a4,a4,-756 # f0e0d0c <aes_regs+0xf0e0bcc>
  44:	02e7a023          	sw	a4,32(a5)
  48:	13121737          	lui	a4,0x13121
  4c:	11070713          	addi	a4,a4,272 # 13121110 <aes_regs+0x13120fd0>
  50:	02e7a223          	sw	a4,36(a5)
  54:	17161737          	lui	a4,0x17161
  58:	51470713          	addi	a4,a4,1300 # 17161514 <aes_regs+0x171613d4>
  5c:	02e7a423          	sw	a4,40(a5)
  60:	f1e1d737          	lui	a4,0xf1e1d
  64:	1c170713          	addi	a4,a4,449 # f1e1d1c1 <aes_regs+0xf1e1d081>
  68:	00e7a223          	sw	a4,4(a5)
  6c:	b1a19737          	lui	a4,0xb1a19
  70:	18170713          	addi	a4,a4,385 # b1a19181 <aes_regs+0xb1a19041>
  74:	00e7a423          	sw	a4,8(a5)
  78:	71615737          	lui	a4,0x71615
  7c:	14170713          	addi	a4,a4,321 # 71615141 <aes_regs+0x71615001>
  80:	00e7a623          	sw	a4,12(a5)
  84:	31211737          	lui	a4,0x31211
  88:	10170713          	addi	a4,a4,257 # 31211101 <aes_regs+0x31210fc1>
  8c:	00e7a823          	sw	a4,16(a5)
  90:	00100713          	li	a4,1
  94:	00e7a023          	sw	a4,0(a5)
  98:	0007a023          	sw	zero,0(a5)
  9c:	02c7a703          	lw	a4,44(a5)
  a0:	00177713          	andi	a4,a4,1
  a4:	00071c63          	bnez	a4,bc <main+0xa8>
  a8:	00000013          	nop
  ac:	14002783          	lw	a5,320(zero) # 140 <aes_regs>
  b0:	02c7a703          	lw	a4,44(a5)
  b4:	00177713          	andi	a4,a4,1
  b8:	fe0708e3          	beqz	a4,a8 <main+0x94>
  bc:	0307a683          	lw	a3,48(a5)
  c0:	d1b44737          	lui	a4,0xd1b44
  c4:	3b570713          	addi	a4,a4,949 # d1b443b5 <aes_regs+0xd1b44275>
  c8:	04e69863          	bne	a3,a4,118 <main+0x104>
  cc:	0347a683          	lw	a3,52(a5)
  d0:	92e74737          	lui	a4,0x92e74
  d4:	61c70713          	addi	a4,a4,1564 # 92e7461c <aes_regs+0x92e744dc>
  d8:	04e69063          	bne	a3,a4,118 <main+0x104>
  dc:	0387a683          	lw	a3,56(a5)
  e0:	589a8737          	lui	a4,0x589a8
  e4:	d6e70713          	addi	a4,a4,-658 # 589a7d6e <aes_regs+0x589a7c2e>
  e8:	02e69863          	bne	a3,a4,118 <main+0x104>
  ec:	03c7a703          	lw	a4,60(a5)
  f0:	cf2e37b7          	lui	a5,0xcf2e3
  f4:	6a778793          	addi	a5,a5,1703 # cf2e36a7 <aes_regs+0xcf2e3567>
  f8:	02f71063          	bne	a4,a5,118 <main+0x104>
  fc:	075bd7b7          	lui	a5,0x75bd
 100:	00002737          	lui	a4,0x2
 104:	d1578793          	addi	a5,a5,-747 # 75bcd15 <aes_regs+0x75bcbd5>
 108:	00f72023          	sw	a5,0(a4) # 2000 <aes_regs+0x1ec0>
 10c:	00000013          	nop
 110:	00000013          	nop
 114:	ff9ff06f          	j	10c <main+0xf8>
 118:	deadc7b7          	lui	a5,0xdeadc
 11c:	00002737          	lui	a4,0x2
 120:	eef78793          	addi	a5,a5,-273 # deadbeef <aes_regs+0xdeadbdaf>
 124:	00f72023          	sw	a5,0(a4) # 2000 <aes_regs+0x1ec0>
 128:	00000013          	nop
 12c:	fe5ff06f          	j	110 <main+0xfc>
